target datalayout = "e-m:e-p270:32:32-p271:32:32-p272:64:64-i64:64-i128:128-f80:128-n8:16:32:64-S128"
target triple = "x86_64-pc-linux-gnu"

%"struct.boost::json::object::table" = type { i32, i32, i64 }
%"class.boost::json::value" = type { %union.anon.1 }
%union.anon.1 = type { %"class.boost::json::array" }
%"class.boost::json::array" = type { %"class.boost::json::storage_ptr", i8, ptr }
%"class.boost::json::storage_ptr" = type { i64 }
%"class.boost::json::object" = type { %"class.boost::json::storage_ptr", i8, ptr }
%"class.boost::json::key_value_pair" = type { %"class.boost::json::value", ptr, i32, i32 }
%"struct.boost::hash.35" = type { i8 }
%"struct.boost::hash.314" = type { i8 }

; Function Attrs: inlinehint mustprogress nounwind uwtable
define linkonce_odr hidden noundef i64 @_ZN5boost11hash_detail13hash_mix_implILm64EE2fnEm(i64 noundef %0) #1 comdat align 2 {
  %2 = alloca i64, align 8
  %3 = alloca i64, align 8
  store i64 %0, ptr %2, align 8, !tbaa !16
  call void @llvm.lifetime.start.p0(i64 8, ptr %3) #10
  store i64 1051668233026429277, ptr %3, align 8, !tbaa !16
  %4 = load i64, ptr %2, align 8, !tbaa !16
  %5 = lshr i64 %4, 32
  %6 = load i64, ptr %2, align 8, !tbaa !16
  %7 = xor i64 %6, %5
  store i64 %7, ptr %2, align 8, !tbaa !16
  %8 = load i64, ptr %2, align 8, !tbaa !16
  %9 = mul i64 %8, 1051668233026429277
  store i64 %9, ptr %2, align 8, !tbaa !16
  %10 = load i64, ptr %2, align 8, !tbaa !16
  %11 = lshr i64 %10, 32
  %12 = load i64, ptr %2, align 8, !tbaa !16
  %13 = xor i64 %12, %11
  store i64 %13, ptr %2, align 8, !tbaa !16
  %14 = load i64, ptr %2, align 8, !tbaa !16
  %15 = mul i64 %14, 1051668233026429277
  store i64 %15, ptr %2, align 8, !tbaa !16
  %16 = load i64, ptr %2, align 8, !tbaa !16
  %17 = lshr i64 %16, 28
  %18 = load i64, ptr %2, align 8, !tbaa !16
  %19 = xor i64 %18, %17
  store i64 %19, ptr %2, align 8, !tbaa !16
  %20 = load i64, ptr %2, align 8, !tbaa !16
  call void @llvm.lifetime.end.p0(i64 8, ptr %3) #10
  ret i64 %20
}

; Function Attrs: inlinehint mustprogress uwtable
define linkonce_odr hidden noundef i64 @_ZN5boost11hash_detail8hash_mixEm(i64 noundef %0) #0 comdat {
  %2 = alloca i64, align 8
  store i64 %0, ptr %2, align 8, !tbaa !16
  %3 = load i64, ptr %2, align 8, !tbaa !16
  %4 = call noundef i64 @_ZN5boost11hash_detail13hash_mix_implILm64EE2fnEm(i64 noundef %3)
  ret i64 %4
}

; Function Attrs: inlinehint mustprogress uwtable
define linkonce_odr hidden void @_ZN5boost12hash_combineINS_4json14key_value_pairEEEvRmRKT_(ptr noundef nonnull align 8 dereferenceable(8) %0, ptr noundef nonnull align 8 dereferenceable(40) %1) #0 comdat {
  %3 = alloca ptr, align 8
  %4 = alloca ptr, align 8
  %5 = alloca %"struct.boost::hash.314", align 1
  store ptr %0, ptr %3, align 8, !tbaa !3
  store ptr %1, ptr %4, align 8, !tbaa !3
  %6 = load ptr, ptr %3, align 8, !tbaa !3
  %7 = load i64, ptr %6, align 8, !tbaa !16
  %8 = add i64 %7, 2654435769
  call void @llvm.lifetime.start.p0(i64 1, ptr %5) #10
  %9 = load ptr, ptr %4, align 8, !tbaa !3
  %10 = call noundef i64 @_ZNK5boost4hashINS_4json14key_value_pairEEclERKS2_(ptr noundef nonnull align 1 dereferenceable(1) %5, ptr noundef nonnull align 8 dereferenceable(40) %9)
  %11 = add i64 %8, %10
  %12 = call noundef i64 @_ZN5boost11hash_detail8hash_mixEm(i64 noundef %11)
  %13 = load ptr, ptr %3, align 8, !tbaa !3
  store i64 %12, ptr %13, align 8, !tbaa !16
  call void @llvm.lifetime.end.p0(i64 1, ptr %5) #10
  ret void
}

; Function Attrs: inlinehint mustprogress uwtable
define linkonce_odr hidden void @_ZN5boost20hash_unordered_rangeIPKNS_4json14key_value_pairEEEvRmT_S6_(ptr noundef nonnull align 8 dereferenceable(8) %0, ptr noundef %1, ptr noundef %2) #0 comdat {
  %4 = alloca ptr, align 8
  %5 = alloca ptr, align 8
  %6 = alloca ptr, align 8
  %7 = alloca i64, align 8
  %8 = alloca i64, align 8
  %9 = alloca i64, align 8
  store ptr %0, ptr %4, align 8, !tbaa !3
  store ptr %1, ptr %5, align 8, !tbaa !3
  store ptr %2, ptr %6, align 8, !tbaa !3
  call void @llvm.lifetime.start.p0(i64 8, ptr %7) #10
  store i64 0, ptr %7, align 8, !tbaa !16
  call void @llvm.lifetime.start.p0(i64 8, ptr %8) #10
  %10 = load ptr, ptr %4, align 8, !tbaa !3
  %11 = load i64, ptr %10, align 8, !tbaa !16
  store i64 %11, ptr %8, align 8, !tbaa !16
  br label %12

12:                                               ; preds = %22, %3
  %13 = load ptr, ptr %5, align 8, !tbaa !3
  %14 = load ptr, ptr %6, align 8, !tbaa !3
  %15 = icmp ne ptr %13, %14
  br i1 %15, label %16, label %25

16:                                               ; preds = %12
  call void @llvm.lifetime.start.p0(i64 8, ptr %9) #10
  %17 = load i64, ptr %8, align 8, !tbaa !16
  store i64 %17, ptr %9, align 8, !tbaa !16
  %18 = load ptr, ptr %5, align 8, !tbaa !3
  call void @_ZN5boost12hash_combineINS_4json14key_value_pairEEEvRmRKT_(ptr noundef nonnull align 8 dereferenceable(8) %9, ptr noundef nonnull align 8 dereferenceable(40) %18)
  %19 = load i64, ptr %9, align 8, !tbaa !16
  %20 = load i64, ptr %7, align 8, !tbaa !16
  %21 = add i64 %20, %19
  store i64 %21, ptr %7, align 8, !tbaa !16
  call void @llvm.lifetime.end.p0(i64 8, ptr %9) #10
  br label %22

22:                                               ; preds = %16
  %23 = load ptr, ptr %5, align 8, !tbaa !3
  %24 = getelementptr inbounds nuw %"class.boost::json::key_value_pair", ptr %23, i32 1
  store ptr %24, ptr %5, align 8, !tbaa !3
  br label %12, !llvm.loop !399

25:                                               ; preds = %12
  %26 = load i64, ptr %7, align 8, !tbaa !16
  %27 = load ptr, ptr %4, align 8, !tbaa !3
  %28 = load i64, ptr %27, align 8, !tbaa !16
  %29 = add i64 %28, %26
  store i64 %29, ptr %27, align 8, !tbaa !16
  call void @llvm.lifetime.end.p0(i64 8, ptr %8) #10
  call void @llvm.lifetime.end.p0(i64 8, ptr %7) #10
  ret void
}

; Function Attrs: mustprogress nounwind uwtable
define linkonce_odr hidden noundef nonnull align 8 dereferenceable(40) ptr @_ZN5boost4json6object5tableixEm(ptr noundef nonnull align 8 dereferenceable(16) %0, i64 noundef %1) #2 comdat align 2 {
  %3 = alloca ptr, align 8
  %4 = alloca i64, align 8
  store ptr %0, ptr %3, align 8, !tbaa !3
  store i64 %1, ptr %4, align 8, !tbaa !16
  %5 = load ptr, ptr %3, align 8
  %6 = getelementptr inbounds %"struct.boost::json::object::table", ptr %5, i64 1
  %7 = load i64, ptr %4, align 8, !tbaa !16
  %8 = getelementptr inbounds nuw %"class.boost::json::key_value_pair", ptr %6, i64 %7
  ret ptr %8
}

; Function Attrs: inlinehint mustprogress uwtable
define linkonce_odr hidden noundef i64 @_ZN5boost20hash_unordered_rangeIPKNS_4json14key_value_pairEEEmT_S5_(ptr noundef %0, ptr noundef %1) #0 comdat {
  %3 = alloca ptr, align 8
  %4 = alloca ptr, align 8
  %5 = alloca i64, align 8
  store ptr %0, ptr %3, align 8, !tbaa !3
  store ptr %1, ptr %4, align 8, !tbaa !3
  call void @llvm.lifetime.start.p0(i64 8, ptr %5) #10
  store i64 0, ptr %5, align 8, !tbaa !16
  %6 = load ptr, ptr %3, align 8, !tbaa !3
  %7 = load ptr, ptr %4, align 8, !tbaa !3
  call void @_ZN5boost20hash_unordered_rangeIPKNS_4json14key_value_pairEEEvRmT_S6_(ptr noundef nonnull align 8 dereferenceable(8) %5, ptr noundef %6, ptr noundef %7)
  %8 = load i64, ptr %5, align 8, !tbaa !16
  call void @llvm.lifetime.end.p0(i64 8, ptr %5) #10
  ret i64 %8
}

; Function Attrs: inlinehint mustprogress nounwind uwtable
define linkonce_odr hidden noundef ptr @_ZNK5boost4json6object3endEv(ptr noundef nonnull align 8 dereferenceable(24) %0) #1 comdat align 2 {
  %2 = alloca ptr, align 8
  store ptr %0, ptr %2, align 8, !tbaa !3
  %3 = load ptr, ptr %2, align 8
  %4 = getelementptr inbounds nuw %"class.boost::json::object", ptr %3, i32 0, i32 2
  %5 = load ptr, ptr %4, align 8, !tbaa !84
  %6 = getelementptr inbounds nuw %"class.boost::json::object", ptr %3, i32 0, i32 2
  %7 = load ptr, ptr %6, align 8, !tbaa !84
  %8 = getelementptr inbounds nuw %"struct.boost::json::object::table", ptr %7, i32 0, i32 0
  %9 = load i32, ptr %8, align 8, !tbaa !86
  %10 = zext i32 %9 to i64
  %11 = call noundef nonnull align 8 dereferenceable(40) ptr @_ZN5boost4json6object5tableixEm(ptr noundef nonnull align 8 dereferenceable(16) %5, i64 noundef %10) #10
  ret ptr %11
}

; Function Attrs: inlinehint mustprogress nounwind uwtable
define linkonce_odr hidden noundef ptr @_ZNK5boost4json6object5beginEv(ptr noundef nonnull align 8 dereferenceable(24) %0) #1 comdat align 2 {
  %2 = alloca ptr, align 8
  store ptr %0, ptr %2, align 8, !tbaa !3
  %3 = load ptr, ptr %2, align 8
  %4 = getelementptr inbounds nuw %"class.boost::json::object", ptr %3, i32 0, i32 2
  %5 = load ptr, ptr %4, align 8, !tbaa !84
  %6 = call noundef nonnull align 8 dereferenceable(40) ptr @_ZN5boost4json6object5tableixEm(ptr noundef nonnull align 8 dereferenceable(16) %5, i64 noundef 0) #10
  ret ptr %6
}

; Function Attrs: mustprogress uwtable
define linkonce_odr hidden noundef i64 @_ZN5boost10hash_valueINS_4json6objectEEENSt9enable_ifIXsr14container_hash18is_unordered_rangeIT_EE5valueEmE4typeERKS4_(ptr noundef nonnull align 8 dereferenceable(24) %0) #5 comdat {
  %2 = alloca ptr, align 8
  store ptr %0, ptr %2, align 8, !tbaa !3
  %3 = load ptr, ptr %2, align 8, !tbaa !3
  %4 = call noundef ptr @_ZNK5boost4json6object5beginEv(ptr noundef nonnull align 8 dereferenceable(24) %3) #10
  %5 = load ptr, ptr %2, align 8, !tbaa !3
  %6 = call noundef ptr @_ZNK5boost4json6object3endEv(ptr noundef nonnull align 8 dereferenceable(24) %5) #10
  %7 = call noundef i64 @_ZN5boost20hash_unordered_rangeIPKNS_4json14key_value_pairEEEmT_S5_(ptr noundef %4, ptr noundef %6)
  ret i64 %7
}

; Function Attrs: mustprogress uwtable
define linkonce_odr hidden noundef i64 @_ZNK5boost4hashINS_4json6objectEEclERKS2_(ptr noundef nonnull align 1 dereferenceable(1) %0, ptr noundef nonnull align 8 dereferenceable(24) %1) #5 comdat align 2 {
  %3 = alloca ptr, align 8
  %4 = alloca ptr, align 8
  store ptr %0, ptr %3, align 8, !tbaa !3
  store ptr %1, ptr %4, align 8, !tbaa !3
  %5 = load ptr, ptr %4, align 8, !tbaa !3
  %6 = call noundef i64 @_ZN5boost10hash_valueINS_4json6objectEEENSt9enable_ifIXsr14container_hash18is_unordered_rangeIT_EE5valueEmE4typeERKS4_(ptr noundef nonnull align 8 dereferenceable(24) %5)
  ret i64 %6
}

; Function Attrs: mustprogress nounwind uwtable
define noundef i64 @_ZNKSt4hashIN5boost4json6objectEEclERKS2_(ptr noundef nonnull align 1 dereferenceable(1) %0, ptr noundef nonnull align 8 dereferenceable(24) %1) #2 align 2 personality ptr @__gxx_personality_v0 {
  %3 = alloca ptr, align 8
  %4 = alloca ptr, align 8
  %5 = alloca %"struct.boost::hash.35", align 1
  store ptr %0, ptr %3, align 8, !tbaa !3
  store ptr %1, ptr %4, align 8, !tbaa !3
  call void @llvm.lifetime.start.p0(i64 1, ptr %5) #10
  %6 = load ptr, ptr %4, align 8, !tbaa !3
  %7 = invoke noundef i64 @_ZNK5boost4hashINS_4json6objectEEclERKS2_(ptr noundef nonnull align 1 dereferenceable(1) %5, ptr noundef nonnull align 8 dereferenceable(24) %6)
          to label %8 unwind label %9

8:                                                ; preds = %2
  call void @llvm.lifetime.end.p0(i64 1, ptr %5) #10
  ret i64 %7

9:                                                ; preds = %2
  %10 = landingpad { ptr, i32 }
          catch ptr null
  %11 = extractvalue { ptr, i32 } %10, 0
  call void @__clang_call_terminate(ptr %11) #34
  unreachable
}