; Function Attrs: mustprogress nounwind uwtable
define noundef i64 @_ZNKSt4hashIN5boost4json6objectEEclERKS2_(ptr nocapture noundef nonnull readnone align 1 dereferenceable(1) %0, ptr nocapture noundef nonnull readonly align 8 dereferenceable(24) %1) local_unnamed_addr #7 align 2 personality ptr @__gxx_personality_v0 {
  %3 = alloca %"struct.boost::hash.314", align 1
  %4 = getelementptr inbounds nuw i8, ptr %1, i64 16
  %5 = load ptr, ptr %4, align 8, !tbaa !102
  %6 = load i32, ptr %5, align 8, !tbaa !106
  %7 = zext i32 %6 to i64
  %.idx.i.i = mul nuw nsw i64 %7, 40
  %8 = getelementptr inbounds i8, ptr %5, i64 %.idx.i.i
  %.ptr9.i.i = getelementptr inbounds i8, ptr %8, i64 16
  %.not.i6.i.i = icmp eq i32 %6, 0
  br i1 %.not.i6.i.i, label %_ZNK5boost4hashINS_4json6objectEEclERKS2_.exit, label %.lr.ph.preheader.i.i

.lr.ph.preheader.i.i:                             ; preds = %2
  %.ptr.i.i = getelementptr inbounds i8, ptr %5, i64 16
  br label %.lr.ph.i.i

.lr.ph.i.i:                                       ; preds = %.noexc, %.lr.ph.preheader.i.i
  %.0.i8.i.i = phi ptr [ %20, %.noexc ], [ %.ptr.i.i, %.lr.ph.preheader.i.i ]
  %.08.i7.i.i = phi i64 [ %19, %.noexc ], [ 0, %.lr.ph.preheader.i.i ]
  call void @llvm.lifetime.start.p0(i64 1, ptr nonnull %3) #48
  %9 = invoke noundef i64 @_ZNK5boost4hashINS_4json14key_value_pairEEclERKS2_(ptr noundef nonnull align 1 dereferenceable(1) %3, ptr noundef nonnull align 8 dereferenceable(40) %.0.i8.i.i)
          to label %.noexc unwind label %21

.noexc:                                           ; preds = %.lr.ph.i.i
  %10 = add i64 %9, 2654435769
  %11 = lshr i64 %10, 32
  %12 = xor i64 %11, %10
  %13 = mul i64 %12, 1051668233026429277
  %14 = lshr i64 %13, 32
  %15 = xor i64 %14, %13
  %16 = mul i64 %15, 1051668233026429277
  %17 = lshr i64 %16, 28
  %18 = xor i64 %17, %16
  call void @llvm.lifetime.end.p0(i64 1, ptr nonnull %3) #48
  %19 = add i64 %18, %.08.i7.i.i
  %20 = getelementptr inbounds nuw i8, ptr %.0.i8.i.i, i64 40
  %.not.i.i.i = icmp eq ptr %20, %.ptr9.i.i
  br i1 %.not.i.i.i, label %_ZNK5boost4hashINS_4json6objectEEclERKS2_.exit, label %.lr.ph.i.i, !llvm.loop !152

_ZNK5boost4hashINS_4json6objectEEclERKS2_.exit:   ; preds = %.noexc, %2
  %.08.i.lcssa.i.i = phi i64 [ 0, %2 ], [ %19, %.noexc ]
  ret i64 %.08.i.lcssa.i.i

21:                                               ; preds = %.lr.ph.i.i
  %22 = landingpad { ptr, i32 }
          catch ptr null
  %23 = extractvalue { ptr, i32 } %22, 0
  call void @__clang_call_terminate(ptr %23) #50
  unreachable
}